; Function Attrs: mustprogress uwtable
define void @_ZN6LibRaw12linear_tableEj(ptr noundef nonnull align 8 dereferenceable(767680) %0, i32 noundef %1) local_unnamed_addr #0 align 2 {
  %3 = icmp ugt i32 %1, 65536
  br i1 %3, label %.thread, label %5

.thread:                                          ; preds = %2
  %4 = getelementptr inbounds nuw i8, ptr %0, i64 5504
  tail call void @_ZN6LibRaw11read_shortsEPtj(ptr noundef nonnull align 8 dereferenceable(767680) %0, ptr noundef nonnull %4, i32 noundef 65536)
  br label %._crit_edge

5:                                                ; preds = %2
  %6 = icmp eq i32 %1, 0
  br i1 %6, label %20, label %7

7:                                                ; preds = %5
  %8 = getelementptr inbounds nuw i8, ptr %0, i64 5504
  tail call void @_ZN6LibRaw11read_shortsEPtj(ptr noundef nonnull align 8 dereferenceable(767680) %0, ptr noundef nonnull %8, i32 noundef %1)
  %.not = icmp eq i32 %1, 65536
  br i1 %.not, label %._crit_edge, label %.lr.ph.preheader

.lr.ph.preheader:                                 ; preds = %7
  %umin = zext nneg i32 %1 to i64
  %9 = shl nuw nsw i64 %umin, 1
  %10 = getelementptr i8, ptr %0, i64 %9
  %scevgep = getelementptr i8, ptr %10, i64 5502
  %load_initial = load i16, ptr %scevgep, align 2
  br label %.lr.ph

.lr.ph:                                           ; preds = %.lr.ph.preheader, %.lr.ph
  %indvars.iv = phi i64 [ %umin, %.lr.ph.preheader ], [ %indvars.iv.next, %.lr.ph ]
  %11 = getelementptr inbounds nuw [65536 x i16], ptr %8, i64 0, i64 %indvars.iv
  store i16 %load_initial, ptr %11, align 2, !tbaa !25
  %indvars.iv.next = add nuw nsw i64 %indvars.iv, 1
  %exitcond.not = icmp eq i64 %indvars.iv.next, 65536
  br i1 %exitcond.not, label %._crit_edge, label %.lr.ph, !llvm.loop !32

._crit_edge:                                      ; preds = %.lr.ph, %.thread, %7
  %.01014 = phi i32 [ 65536, %.thread ], [ 65536, %7 ], [ %1, %.lr.ph ]
  %12 = getelementptr inbounds nuw i8, ptr %0, i64 5504
  %13 = tail call i32 @llvm.umax.i32(i32 %.01014, i32 4096)
  %14 = add nsw i32 %13, -1
  %15 = zext nneg i32 %14 to i64
  %16 = getelementptr inbounds nuw [65536 x i16], ptr %12, i64 0, i64 %15
  %17 = load i16, ptr %16, align 2, !tbaa !25
  %18 = zext i16 %17 to i32
  %19 = getelementptr inbounds nuw i8, ptr %0, i64 153000
  store i32 %18, ptr %19, align 8, !tbaa !33
  br label %20

20:                                               ; preds = %5, %._crit_edge
  ret void
}